target datalayout = "e-m:e-p270:32:32-p271:32:32-p272:64:64-i64:64-i128:128-f80:128-n8:16:32:64-S128"
target triple = "x86_64-pc-linux-gnu"

%"struct.std::atomic.13" = type { i32 }
%"struct.std::atomic.11" = type { %"struct.std::__atomic_base.12" }
%"struct.std::__atomic_base.12" = type { i8 }
%"struct.std::atomic.8" = type { %"struct.std::__atomic_base.9" }
%"struct.std::__atomic_base.9" = type { i32 }
%"struct.absl::base_internal::ThreadIdentity" = type { %"struct.absl::base_internal::PerThreadSynch", %"struct.absl::base_internal::ThreadIdentity::WaiterState", ptr, %"struct.std::atomic.8", %"struct.std::atomic.8", %"struct.std::atomic.11", ptr }
%"struct.absl::base_internal::PerThreadSynch" = type { ptr, ptr, i8, i8, i8, i8, i8, i32, %"struct.std::atomic.10", ptr, i64, i64, ptr }
%"struct.std::atomic.10" = type { i32 }
%"struct.absl::base_internal::ThreadIdentity::WaiterState" = type { [256 x i8] }

@_ZN4absl12_GLOBAL__N_124synch_deadlock_detectionE = internal global %"struct.std::atomic.13" { i32 2 }, align 4

; Function Attrs: mustprogress nounwind uwtable
define linkonce_odr dso_local void @_ZNSt6atomicIN4absl15OnDeadlockCycleEE5storeES1_St12memory_order(ptr noundef nonnull align 4 dereferenceable(4) %0, i32 noundef %1, i32 noundef %2) #5 comdat align 2 {
  %4 = alloca ptr, align 8
  %5 = alloca i32, align 4
  %6 = alloca i32, align 4
  store ptr %0, ptr %4, align 8, !tbaa !49
  store i32 %1, ptr %5, align 4, !tbaa !51
  store i32 %2, ptr %6, align 4, !tbaa !53
  %7 = load ptr, ptr %4, align 8
  %8 = getelementptr inbounds nuw %"struct.std::atomic.13", ptr %7, i32 0, i32 0
  %9 = load i32, ptr %6, align 4, !tbaa !53
  switch i32 %9, label %10 [
    i32 3, label %12
    i32 5, label %14
  ]

10:                                               ; preds = %3
  %11 = load i32, ptr %5, align 4
  store atomic i32 %11, ptr %8 monotonic, align 4
  br label %16

12:                                               ; preds = %3
  %13 = load i32, ptr %5, align 4
  store atomic i32 %13, ptr %8 release, align 4
  br label %16

14:                                               ; preds = %3
  %15 = load i32, ptr %5, align 4
  store atomic i32 %15, ptr %8 seq_cst, align 4
  br label %16

16:                                               ; preds = %14, %12, %10
  ret void
}

; Function Attrs: mustprogress uwtable
define dso_local void @_ZN4absl5Mutex45InternalAttemptToUseMutexInFatalSignalHandlerEv() #0 align 2 {
  %1 = alloca ptr, align 8
  call void @llvm.lifetime.start.p0(i64 8, ptr %1) #18
  %2 = call noundef ptr @_ZN4absl13base_internal30CurrentThreadIdentityIfPresentEv()
  store ptr %2, ptr %1, align 8, !tbaa !29
  %3 = load ptr, ptr %1, align 8, !tbaa !29
  %4 = icmp ne ptr %3, null
  br i1 %4, label %5, label %9

5:                                                ; preds = %0
  %6 = load ptr, ptr %1, align 8, !tbaa !29
  %7 = getelementptr inbounds nuw %"struct.absl::base_internal::ThreadIdentity", ptr %6, i32 0, i32 0
  %8 = getelementptr inbounds nuw %"struct.absl::base_internal::PerThreadSynch", ptr %7, i32 0, i32 6
  store i8 1, ptr %8, align 4, !tbaa !36
  br label %9

9:                                                ; preds = %5, %0
  call void @_ZNSt6atomicIN4absl15OnDeadlockCycleEE5storeES1_St12memory_order(ptr noundef nonnull align 4 dereferenceable(4) @_ZN4absl12_GLOBAL__N_124synch_deadlock_detectionE, i32 noundef 0, i32 noundef 3) #18
  call void @llvm.lifetime.end.p0(i64 8, ptr %1) #18
  ret void
}