; Function Attrs: mustprogress uwtable
define dso_local void @_ZN4absl5Mutex45InternalAttemptToUseMutexInFatalSignalHandlerEv() local_unnamed_addr #0 align 2 {
  %1 = tail call noundef ptr @_ZN4absl13base_internal30CurrentThreadIdentityIfPresentEv()
  %.not = icmp eq ptr %1, null
  br i1 %.not, label %4, label %2

2:                                                ; preds = %0
  %3 = getelementptr inbounds nuw i8, ptr %1, i64 20
  store i8 1, ptr %3, align 4, !tbaa !24
  br label %4

4:                                                ; preds = %2, %0
  ret void
}